; Function Attrs: nounwind uwtable
define range(i32 -32, 1) i32 @pmix20_bfrop_print_cmd(ptr noundef %0, ptr noundef %1, ptr noundef readonly captures(none) %2, i16 noundef zeroext %3) local_unnamed_addr #0 {
  %5 = alloca ptr, align 8
  call void @llvm.lifetime.start.p0(i64 8, ptr nonnull %5) #7
  %6 = icmp eq ptr %1, null
  br i1 %6, label %7, label %10

7:                                                ; preds = %4
  %8 = call i32 (ptr, ptr, ...) @asprintf(ptr noundef nonnull %5, ptr noundef nonnull @.str) #7
  %9 = icmp slt i32 %8, 0
  br i1 %9, label %18, label %._crit_edge

._crit_edge:                                      ; preds = %7
  %.pre = load ptr, ptr %5, align 8, !tbaa !20
  br label %11

10:                                               ; preds = %4
  store ptr %1, ptr %5, align 8, !tbaa !20
  br label %11

11:                                               ; preds = %._crit_edge, %10
  %12 = phi ptr [ %.pre, %._crit_edge ], [ %1, %10 ]
  %13 = load i8, ptr %2, align 1, !tbaa !25
  %14 = call ptr @pmix_command_string(i8 noundef zeroext %13) #7
  %15 = call i32 (ptr, ptr, ...) @asprintf(ptr noundef %0, ptr noundef nonnull @.str.86, ptr noundef %12, ptr noundef %14) #7
  %16 = icmp slt i32 %15, 0
  %17 = load ptr, ptr %5, align 8, !tbaa !20
  %.not9 = icmp eq ptr %17, %1
  %. = select i1 %16, i32 -32, i32 0
  br i1 %.not9, label %18, label %.sink.split

.sink.split:                                      ; preds = %11
  call void @free(ptr noundef %17) #7
  br label %18

18:                                               ; preds = %11, %.sink.split, %7
  %.0 = phi i32 [ -32, %7 ], [ %., %.sink.split ], [ %., %11 ]
  call void @llvm.lifetime.end.p0(i64 8, ptr nonnull %5) #7
  ret i32 %.0
}